
tmp/DynArray.o:     file format elf32-i386


Disassembly of section .text:

00000000 <InitDynArray32>:
   0:	8b 44 24 04          	mov    eax,DWORD PTR [esp+0x4]
   4:	8b 54 24 08          	mov    edx,DWORD PTR [esp+0x8]
   8:	89 50 04             	mov    DWORD PTR [eax+0x4],edx
   b:	89 10                	mov    DWORD PTR [eax],edx
   d:	8b 54 24 0c          	mov    edx,DWORD PTR [esp+0xc]
  11:	89 50 08             	mov    DWORD PTR [eax+0x8],edx
  14:	c3                   	ret    
  15:	8d 74 26 00          	lea    esi,[esi+eiz*1+0x0]
  19:	8d bc 27 00 00 00 00 	lea    edi,[edi+eiz*1+0x0]

00000020 <PushBackDynArray32>:
  20:	8b 54 24 04          	mov    edx,DWORD PTR [esp+0x4]
  24:	8b 42 04             	mov    eax,DWORD PTR [edx+0x4]
  27:	3b 42 08             	cmp    eax,DWORD PTR [edx+0x8]
  2a:	74 0c                	je     38 <PushBackDynArray32+0x18>
  2c:	8b 4c 24 08          	mov    ecx,DWORD PTR [esp+0x8]
  30:	89 08                	mov    DWORD PTR [eax],ecx
  32:	8d 48 04             	lea    ecx,[eax+0x4]
  35:	89 4a 04             	mov    DWORD PTR [edx+0x4],ecx
  38:	f3 c3                	repz ret 
  3a:	8d b6 00 00 00 00    	lea    esi,[esi+0x0]

00000040 <EraseDynArray32>:
  40:	53                   	push   ebx
  41:	31 c0                	xor    eax,eax
  43:	83 ec 18             	sub    esp,0x18
  46:	8b 5c 24 20          	mov    ebx,DWORD PTR [esp+0x20]
  4a:	8b 54 24 24          	mov    edx,DWORD PTR [esp+0x24]
  4e:	39 13                	cmp    DWORD PTR [ebx],edx
  50:	77 07                	ja     59 <EraseDynArray32+0x19>
  52:	8b 4b 04             	mov    ecx,DWORD PTR [ebx+0x4]
  55:	39 ca                	cmp    edx,ecx
  57:	72 07                	jb     60 <EraseDynArray32+0x20>
  59:	83 c4 18             	add    esp,0x18
  5c:	5b                   	pop    ebx
  5d:	c3                   	ret    
  5e:	66 90                	xchg   ax,ax
  60:	29 d1                	sub    ecx,edx
  62:	c1 f9 02             	sar    ecx,0x2
  65:	8d 04 8d fc ff ff ff 	lea    eax,[ecx*4-0x4]
  6c:	89 44 24 08          	mov    DWORD PTR [esp+0x8],eax
  70:	8d 42 04             	lea    eax,[edx+0x4]
  73:	89 44 24 04          	mov    DWORD PTR [esp+0x4],eax
  77:	89 14 24             	mov    DWORD PTR [esp],edx
  7a:	e8 fc ff ff ff       	call   7b <EraseDynArray32+0x3b>
  7f:	b8 01 00 00 00       	mov    eax,0x1
  84:	83 6b 04 04          	sub    DWORD PTR [ebx+0x4],0x4
  88:	83 c4 18             	add    esp,0x18
  8b:	5b                   	pop    ebx
  8c:	c3                   	ret    
