
tmp/PIC.o:     file format elf32-i386


Disassembly of section .text:

00000000 <InitPic>:
   0:	53                   	push   ebx
   1:	83 ec 18             	sub    esp,0x18
   4:	e8 fc ff ff ff       	call   5 <InitPic+0x5>
   9:	89 c3                	mov    ebx,eax
   b:	e8 fc ff ff ff       	call   c <InitPic+0xc>
  10:	c7 44 24 04 11 00 00 	mov    DWORD PTR [esp+0x4],0x11
  17:	00 
  18:	c7 04 24 20 00 00 00 	mov    DWORD PTR [esp],0x20
  1f:	e8 fc ff ff ff       	call   20 <InitPic+0x20>
  24:	c7 44 24 04 20 00 00 	mov    DWORD PTR [esp+0x4],0x20
  2b:	00 
  2c:	c7 04 24 21 00 00 00 	mov    DWORD PTR [esp],0x21
  33:	e8 fc ff ff ff       	call   34 <InitPic+0x34>
  38:	c7 44 24 04 04 00 00 	mov    DWORD PTR [esp+0x4],0x4
  3f:	00 
  40:	c7 04 24 21 00 00 00 	mov    DWORD PTR [esp],0x21
  47:	e8 fc ff ff ff       	call   48 <InitPic+0x48>
  4c:	c7 44 24 04 01 00 00 	mov    DWORD PTR [esp+0x4],0x1
  53:	00 
  54:	c7 04 24 21 00 00 00 	mov    DWORD PTR [esp],0x21
  5b:	e8 fc ff ff ff       	call   5c <InitPic+0x5c>
  60:	c7 44 24 04 11 00 00 	mov    DWORD PTR [esp+0x4],0x11
  67:	00 
  68:	c7 04 24 a0 00 00 00 	mov    DWORD PTR [esp],0xa0
  6f:	e8 fc ff ff ff       	call   70 <InitPic+0x70>
  74:	c7 44 24 04 28 00 00 	mov    DWORD PTR [esp+0x4],0x28
  7b:	00 
  7c:	c7 04 24 a1 00 00 00 	mov    DWORD PTR [esp],0xa1
  83:	e8 fc ff ff ff       	call   84 <InitPic+0x84>
  88:	c7 44 24 04 02 00 00 	mov    DWORD PTR [esp+0x4],0x2
  8f:	00 
  90:	c7 04 24 a1 00 00 00 	mov    DWORD PTR [esp],0xa1
  97:	e8 fc ff ff ff       	call   98 <InitPic+0x98>
  9c:	c7 44 24 04 01 00 00 	mov    DWORD PTR [esp+0x4],0x1
  a3:	00 
  a4:	c7 04 24 a1 00 00 00 	mov    DWORD PTR [esp],0xa1
  ab:	e8 fc ff ff ff       	call   ac <InitPic+0xac>
  b0:	c7 44 24 04 fb 00 00 	mov    DWORD PTR [esp+0x4],0xfb
  b7:	00 
  b8:	c7 04 24 21 00 00 00 	mov    DWORD PTR [esp],0x21
  bf:	e8 fc ff ff ff       	call   c0 <InitPic+0xc0>
  c4:	c7 44 24 04 ff 00 00 	mov    DWORD PTR [esp+0x4],0xff
  cb:	00 
  cc:	c7 04 24 a1 00 00 00 	mov    DWORD PTR [esp],0xa1
  d3:	e8 fc ff ff ff       	call   d4 <InitPic+0xd4>
  d8:	89 1c 24             	mov    DWORD PTR [esp],ebx
  db:	e8 fc ff ff ff       	call   dc <InitPic+0xdc>
  e0:	83 c4 18             	add    esp,0x18
  e3:	5b                   	pop    ebx
  e4:	c3                   	ret    
  e5:	8d 74 26 00          	lea    esi,[esi+eiz*1+0x0]
  e9:	8d bc 27 00 00 00 00 	lea    edi,[edi+eiz*1+0x0]

000000f0 <SetPicInterrupt>:
  f0:	53                   	push   ebx
  f1:	83 ec 18             	sub    esp,0x18
  f4:	0f b7 5c 24 20       	movzx  ebx,WORD PTR [esp+0x20]
  f9:	c7 04 24 21 00 00 00 	mov    DWORD PTR [esp],0x21
 100:	0f b6 c3             	movzx  eax,bl
 103:	0f b6 df             	movzx  ebx,bh
 106:	89 44 24 04          	mov    DWORD PTR [esp+0x4],eax
 10a:	e8 fc ff ff ff       	call   10b <SetPicInterrupt+0x1b>
 10f:	89 5c 24 04          	mov    DWORD PTR [esp+0x4],ebx
 113:	c7 04 24 a1 00 00 00 	mov    DWORD PTR [esp],0xa1
 11a:	e8 fc ff ff ff       	call   11b <SetPicInterrupt+0x2b>
 11f:	83 c4 18             	add    esp,0x18
 122:	5b                   	pop    ebx
 123:	c3                   	ret    
 124:	8d b6 00 00 00 00    	lea    esi,[esi+0x0]
 12a:	8d bf 00 00 00 00    	lea    edi,[edi+0x0]

00000130 <SendEOI>:
 130:	53                   	push   ebx
 131:	83 ec 18             	sub    esp,0x18
 134:	0f b6 5c 24 20       	movzx  ebx,BYTE PTR [esp+0x20]
 139:	80 fb 07             	cmp    bl,0x7
 13c:	76 32                	jbe    170 <SendEOI+0x40>
 13e:	83 eb 08             	sub    ebx,0x8
 141:	83 cb 60             	or     ebx,0x60
 144:	c7 44 24 04 62 00 00 	mov    DWORD PTR [esp+0x4],0x62
 14b:	00 
 14c:	0f b6 db             	movzx  ebx,bl
 14f:	c7 04 24 20 00 00 00 	mov    DWORD PTR [esp],0x20
 156:	e8 fc ff ff ff       	call   157 <SendEOI+0x27>
 15b:	89 5c 24 04          	mov    DWORD PTR [esp+0x4],ebx
 15f:	c7 04 24 a0 00 00 00 	mov    DWORD PTR [esp],0xa0
 166:	e8 fc ff ff ff       	call   167 <SendEOI+0x37>
 16b:	83 c4 18             	add    esp,0x18
 16e:	5b                   	pop    ebx
 16f:	c3                   	ret    
 170:	83 cb 60             	or     ebx,0x60
 173:	0f b6 db             	movzx  ebx,bl
 176:	89 5c 24 04          	mov    DWORD PTR [esp+0x4],ebx
 17a:	c7 04 24 20 00 00 00 	mov    DWORD PTR [esp],0x20
 181:	e8 fc ff ff ff       	call   182 <SendEOI+0x52>
 186:	83 c4 18             	add    esp,0x18
 189:	5b                   	pop    ebx
 18a:	c3                   	ret    
