
tmp/Queue.o:     file format elf32-i386


Disassembly of section .text:

00000000 <InitQueue32>:
   0:	8b 44 24 04          	mov    eax,DWORD PTR [esp+0x4]
   4:	8b 54 24 08          	mov    edx,DWORD PTR [esp+0x8]
   8:	c6 40 10 01          	mov    BYTE PTR [eax+0x10],0x1
   c:	89 10                	mov    DWORD PTR [eax],edx
   e:	89 50 08             	mov    DWORD PTR [eax+0x8],edx
  11:	89 50 04             	mov    DWORD PTR [eax+0x4],edx
  14:	8b 54 24 0c          	mov    edx,DWORD PTR [esp+0xc]
  18:	89 50 0c             	mov    DWORD PTR [eax+0xc],edx
  1b:	c3                   	ret    
  1c:	8d 74 26 00          	lea    esi,[esi+eiz*1+0x0]

00000020 <PutQueue32>:
  20:	53                   	push   ebx
  21:	8b 44 24 08          	mov    eax,DWORD PTR [esp+0x8]
  25:	80 78 10 00          	cmp    BYTE PTR [eax+0x10],0x0
  29:	8b 50 08             	mov    edx,DWORD PTR [eax+0x8]
  2c:	75 05                	jne    33 <PutQueue32+0x13>
  2e:	39 50 04             	cmp    DWORD PTR [eax+0x4],edx
  31:	74 2d                	je     60 <PutQueue32+0x40>
  33:	8b 4c 24 0c          	mov    ecx,DWORD PTR [esp+0xc]
  37:	89 0a                	mov    DWORD PTR [edx],ecx
  39:	8b 08                	mov    ecx,DWORD PTR [eax]
  3b:	83 c2 04             	add    edx,0x4
  3e:	8b 58 0c             	mov    ebx,DWORD PTR [eax+0xc]
  41:	89 50 08             	mov    DWORD PTR [eax+0x8],edx
  44:	8d 1c 99             	lea    ebx,[ecx+ebx*4]
  47:	39 da                	cmp    edx,ebx
  49:	72 03                	jb     4e <PutQueue32+0x2e>
  4b:	89 48 08             	mov    DWORD PTR [eax+0x8],ecx
  4e:	c6 40 10 00          	mov    BYTE PTR [eax+0x10],0x0
  52:	b8 01 00 00 00       	mov    eax,0x1
  57:	5b                   	pop    ebx
  58:	c3                   	ret    
  59:	8d b4 26 00 00 00 00 	lea    esi,[esi+eiz*1+0x0]
  60:	31 c0                	xor    eax,eax
  62:	5b                   	pop    ebx
  63:	c3                   	ret    
  64:	8d b6 00 00 00 00    	lea    esi,[esi+0x0]
  6a:	8d bf 00 00 00 00    	lea    edi,[edi+0x0]

00000070 <GetQueue32>:
  70:	83 ec 1c             	sub    esp,0x1c
  73:	8b 54 24 28          	mov    edx,DWORD PTR [esp+0x28]
  77:	8d 44 24 0c          	lea    eax,[esp+0xc]
  7b:	8b 4c 24 20          	mov    ecx,DWORD PTR [esp+0x20]
  7f:	89 5c 24 10          	mov    DWORD PTR [esp+0x10],ebx
  83:	0f b6 5c 24 24       	movzx  ebx,BYTE PTR [esp+0x24]
  88:	89 74 24 14          	mov    DWORD PTR [esp+0x14],esi
  8c:	85 d2                	test   edx,edx
  8e:	89 7c 24 18          	mov    DWORD PTR [esp+0x18],edi
  92:	0f 44 d0             	cmove  edx,eax
  95:	80 79 10 00          	cmp    BYTE PTR [ecx+0x10],0x0
  99:	75 1d                	jne    b8 <GetQueue32+0x48>
  9b:	8b 71 04             	mov    esi,DWORD PTR [ecx+0x4]
  9e:	84 db                	test   bl,bl
  a0:	8b 06                	mov    eax,DWORD PTR [esi]
  a2:	74 2c                	je     d0 <GetQueue32+0x60>
  a4:	c6 02 01             	mov    BYTE PTR [edx],0x1
  a7:	8b 5c 24 10          	mov    ebx,DWORD PTR [esp+0x10]
  ab:	8b 74 24 14          	mov    esi,DWORD PTR [esp+0x14]
  af:	8b 7c 24 18          	mov    edi,DWORD PTR [esp+0x18]
  b3:	83 c4 1c             	add    esp,0x1c
  b6:	c3                   	ret    
  b7:	90                   	nop
  b8:	c6 02 00             	mov    BYTE PTR [edx],0x0
  bb:	31 c0                	xor    eax,eax
  bd:	8b 5c 24 10          	mov    ebx,DWORD PTR [esp+0x10]
  c1:	8b 74 24 14          	mov    esi,DWORD PTR [esp+0x14]
  c5:	8b 7c 24 18          	mov    edi,DWORD PTR [esp+0x18]
  c9:	83 c4 1c             	add    esp,0x1c
  cc:	c3                   	ret    
  cd:	8d 76 00             	lea    esi,[esi+0x0]
  d0:	8b 19                	mov    ebx,DWORD PTR [ecx]
  d2:	83 c6 04             	add    esi,0x4
  d5:	8b 79 0c             	mov    edi,DWORD PTR [ecx+0xc]
  d8:	89 71 04             	mov    DWORD PTR [ecx+0x4],esi
  db:	8d 3c bb             	lea    edi,[ebx+edi*4]
  de:	39 fe                	cmp    esi,edi
  e0:	72 05                	jb     e7 <GetQueue32+0x77>
  e2:	89 59 04             	mov    DWORD PTR [ecx+0x4],ebx
  e5:	89 de                	mov    esi,ebx
  e7:	39 71 08             	cmp    DWORD PTR [ecx+0x8],esi
  ea:	75 b8                	jne    a4 <GetQueue32+0x34>
  ec:	c6 41 10 01          	mov    BYTE PTR [ecx+0x10],0x1
  f0:	eb b2                	jmp    a4 <GetQueue32+0x34>
  f2:	8d b4 26 00 00 00 00 	lea    esi,[esi+eiz*1+0x0]
  f9:	8d bc 27 00 00 00 00 	lea    edi,[edi+eiz*1+0x0]

00000100 <RemoveQueue32>:
 100:	53                   	push   ebx
 101:	8b 54 24 08          	mov    edx,DWORD PTR [esp+0x8]
 105:	31 c0                	xor    eax,eax
 107:	80 7a 10 00          	cmp    BYTE PTR [edx+0x10],0x0
 10b:	75 24                	jne    131 <RemoveQueue32+0x31>
 10d:	8b 4a 04             	mov    ecx,DWORD PTR [edx+0x4]
 110:	8b 02                	mov    eax,DWORD PTR [edx]
 112:	8b 5a 0c             	mov    ebx,DWORD PTR [edx+0xc]
 115:	83 c1 04             	add    ecx,0x4
 118:	89 4a 04             	mov    DWORD PTR [edx+0x4],ecx
 11b:	8d 1c 98             	lea    ebx,[eax+ebx*4]
 11e:	39 d9                	cmp    ecx,ebx
 120:	72 05                	jb     127 <RemoveQueue32+0x27>
 122:	89 42 04             	mov    DWORD PTR [edx+0x4],eax
 125:	89 c1                	mov    ecx,eax
 127:	39 4a 08             	cmp    DWORD PTR [edx+0x8],ecx
 12a:	b8 01 00 00 00       	mov    eax,0x1
 12f:	74 07                	je     138 <RemoveQueue32+0x38>
 131:	5b                   	pop    ebx
 132:	c3                   	ret    
 133:	90                   	nop
 134:	8d 74 26 00          	lea    esi,[esi+eiz*1+0x0]
 138:	c6 42 10 01          	mov    BYTE PTR [edx+0x10],0x1
 13c:	5b                   	pop    ebx
 13d:	c3                   	ret    
