
tmp/Timer.o:     file format elf32-i386


Disassembly of section .text:

00000000 <InitTimer>:
   0:	83 ec 1c             	sub    esp,0x1c
   3:	c7 44 24 08 00 08 00 	mov    DWORD PTR [esp+0x8],0x800
   a:	00 
   b:	c7 44 24 04 00 00 00 	mov    DWORD PTR [esp+0x4],0x0
  12:	00 
  13:	c7 04 24 08 00 00 00 	mov    DWORD PTR [esp],0x8
  1a:	e8 fc ff ff ff       	call   1b <InitTimer+0x1b>
  1f:	c7 44 24 04 34 00 00 	mov    DWORD PTR [esp+0x4],0x34
  26:	00 
  27:	c7 04 24 43 00 00 00 	mov    DWORD PTR [esp],0x43
  2e:	c6 05 0c 08 00 00 00 	mov    BYTE PTR ds:0x80c,0x0
  35:	c7 05 08 08 00 00 ff 	mov    DWORD PTR ds:0x808,0xffffffff
  3c:	ff ff ff 
  3f:	c7 05 04 00 00 00 00 	mov    DWORD PTR ds:0x4,0x0
  46:	00 00 00 
  49:	c7 05 00 00 00 00 00 	mov    DWORD PTR ds:0x0,0x0
  50:	00 00 00 
  53:	e8 fc ff ff ff       	call   54 <InitTimer+0x54>
  58:	c7 44 24 04 a9 00 00 	mov    DWORD PTR [esp+0x4],0xa9
  5f:	00 
  60:	c7 04 24 40 00 00 00 	mov    DWORD PTR [esp],0x40
  67:	e8 fc ff ff ff       	call   68 <InitTimer+0x68>
  6c:	c7 44 24 04 04 00 00 	mov    DWORD PTR [esp+0x4],0x4
  73:	00 
  74:	c7 04 24 40 00 00 00 	mov    DWORD PTR [esp],0x40
  7b:	e8 fc ff ff ff       	call   7c <InitTimer+0x7c>
  80:	83 c4 1c             	add    esp,0x1c
  83:	c3                   	ret    
  84:	8d b6 00 00 00 00    	lea    esi,[esi+0x0]
  8a:	8d bf 00 00 00 00    	lea    edi,[edi+0x0]

00000090 <SetTimer>:
  90:	56                   	push   esi
  91:	53                   	push   ebx
  92:	83 ec 14             	sub    esp,0x14
  95:	e8 fc ff ff ff       	call   96 <SetTimer+0x6>
  9a:	89 c6                	mov    esi,eax
  9c:	e8 fc ff ff ff       	call   9d <SetTimer+0xd>
  a1:	8b 4c 24 20          	mov    ecx,DWORD PTR [esp+0x20]
  a5:	ba 08 00 00 00       	mov    edx,0x8
  aa:	03 0d 04 00 00 00    	add    ecx,DWORD PTR ds:0x4
  b0:	eb 11                	jmp    c3 <SetTimer+0x33>
  b2:	8d b6 00 00 00 00    	lea    esi,[esi+0x0]
  b8:	83 c2 08             	add    edx,0x8
  bb:	81 fa 08 08 00 00    	cmp    edx,0x808
  c1:	74 3d                	je     100 <SetTimer+0x70>
  c3:	8b 02                	mov    eax,DWORD PTR [edx]
  c5:	85 c0                	test   eax,eax
  c7:	75 ef                	jne    b8 <SetTimer+0x28>
  c9:	8b 44 24 24          	mov    eax,DWORD PTR [esp+0x24]
  cd:	3b 0d 08 08 00 00    	cmp    ecx,DWORD PTR ds:0x808
  d3:	89 0a                	mov    DWORD PTR [edx],ecx
  d5:	89 42 04             	mov    DWORD PTR [edx+0x4],eax
  d8:	73 06                	jae    e0 <SetTimer+0x50>
  da:	89 0d 08 08 00 00    	mov    DWORD PTR ds:0x808,ecx
  e0:	89 34 24             	mov    DWORD PTR [esp],esi
  e3:	bb 01 00 00 00       	mov    ebx,0x1
  e8:	c6 05 0c 08 00 00 01 	mov    BYTE PTR ds:0x80c,0x1
  ef:	e8 fc ff ff ff       	call   f0 <SetTimer+0x60>
  f4:	83 c4 14             	add    esp,0x14
  f7:	89 d8                	mov    eax,ebx
  f9:	5b                   	pop    ebx
  fa:	5e                   	pop    esi
  fb:	c3                   	ret    
  fc:	8d 74 26 00          	lea    esi,[esi+eiz*1+0x0]
 100:	89 34 24             	mov    DWORD PTR [esp],esi
 103:	31 db                	xor    ebx,ebx
 105:	e8 fc ff ff ff       	call   106 <SetTimer+0x76>
 10a:	83 c4 14             	add    esp,0x14
 10d:	89 d8                	mov    eax,ebx
 10f:	5b                   	pop    ebx
 110:	5e                   	pop    esi
 111:	c3                   	ret    
 112:	8d b4 26 00 00 00 00 	lea    esi,[esi+eiz*1+0x0]
 119:	8d bc 27 00 00 00 00 	lea    edi,[edi+eiz*1+0x0]

00000120 <_TimerHandler>:
 120:	83 ec 1c             	sub    esp,0x1c
 123:	c7 04 24 00 00 00 00 	mov    DWORD PTR [esp],0x0
 12a:	e8 fc ff ff ff       	call   12b <_TimerHandler+0xb>
 12f:	8b 0d 04 00 00 00    	mov    ecx,DWORD PTR ds:0x4
 135:	83 c1 01             	add    ecx,0x1
 138:	85 c9                	test   ecx,ecx
 13a:	89 0d 04 00 00 00    	mov    DWORD PTR ds:0x4,ecx
 140:	75 0e                	jne    150 <_TimerHandler+0x30>
 142:	83 05 00 00 00 00 01 	add    DWORD PTR ds:0x0,0x1
 149:	83 c4 1c             	add    esp,0x1c
 14c:	c3                   	ret    
 14d:	8d 76 00             	lea    esi,[esi+0x0]
 150:	89 c8                	mov    eax,ecx
 152:	ba cd cc cc cc       	mov    edx,0xcccccccd
 157:	f7 e2                	mul    edx
 159:	c1 ea 04             	shr    edx,0x4
 15c:	8d 04 92             	lea    eax,[edx+edx*4]
 15f:	c1 e0 02             	shl    eax,0x2
 162:	39 c1                	cmp    ecx,eax
 164:	74 e3                	je     149 <_TimerHandler+0x29>
 166:	83 c4 1c             	add    esp,0x1c
 169:	e9 fc ff ff ff       	jmp    16a <_TimerHandler+0x4a>
 16e:	66 90                	xchg   ax,ax

00000170 <ReadRTCTime>:
 170:	53                   	push   ebx
 171:	83 ec 18             	sub    esp,0x18
 174:	c7 44 24 04 04 00 00 	mov    DWORD PTR [esp+0x4],0x4
 17b:	00 
 17c:	8b 5c 24 20          	mov    ebx,DWORD PTR [esp+0x20]
 180:	c7 04 24 70 00 00 00 	mov    DWORD PTR [esp],0x70
 187:	e8 fc ff ff ff       	call   188 <ReadRTCTime+0x18>
 18c:	c7 04 24 71 00 00 00 	mov    DWORD PTR [esp],0x71
 193:	e8 fc ff ff ff       	call   194 <ReadRTCTime+0x24>
 198:	89 c2                	mov    edx,eax
 19a:	83 e0 0f             	and    eax,0xf
 19d:	c0 ea 04             	shr    dl,0x4
 1a0:	8d 14 92             	lea    edx,[edx+edx*4]
 1a3:	8d 04 50             	lea    eax,[eax+edx*2]
 1a6:	88 03                	mov    BYTE PTR [ebx],al
 1a8:	c7 44 24 04 02 00 00 	mov    DWORD PTR [esp+0x4],0x2
 1af:	00 
 1b0:	c7 04 24 70 00 00 00 	mov    DWORD PTR [esp],0x70
 1b7:	e8 fc ff ff ff       	call   1b8 <ReadRTCTime+0x48>
 1bc:	c7 04 24 71 00 00 00 	mov    DWORD PTR [esp],0x71
 1c3:	e8 fc ff ff ff       	call   1c4 <ReadRTCTime+0x54>
 1c8:	89 c2                	mov    edx,eax
 1ca:	83 e0 0f             	and    eax,0xf
 1cd:	c0 ea 04             	shr    dl,0x4
 1d0:	8d 14 92             	lea    edx,[edx+edx*4]
 1d3:	8d 04 50             	lea    eax,[eax+edx*2]
 1d6:	88 43 01             	mov    BYTE PTR [ebx+0x1],al
 1d9:	c7 44 24 04 00 00 00 	mov    DWORD PTR [esp+0x4],0x0
 1e0:	00 
 1e1:	c7 04 24 70 00 00 00 	mov    DWORD PTR [esp],0x70
 1e8:	e8 fc ff ff ff       	call   1e9 <ReadRTCTime+0x79>
 1ed:	c7 04 24 71 00 00 00 	mov    DWORD PTR [esp],0x71
 1f4:	e8 fc ff ff ff       	call   1f5 <ReadRTCTime+0x85>
 1f9:	89 c2                	mov    edx,eax
 1fb:	83 e0 0f             	and    eax,0xf
 1fe:	c0 ea 04             	shr    dl,0x4
 201:	8d 14 92             	lea    edx,[edx+edx*4]
 204:	8d 04 50             	lea    eax,[eax+edx*2]
 207:	88 43 02             	mov    BYTE PTR [ebx+0x2],al
 20a:	83 c4 18             	add    esp,0x18
 20d:	5b                   	pop    ebx
 20e:	c3                   	ret    
 20f:	90                   	nop

00000210 <ReadRTCDate>:
 210:	53                   	push   ebx
 211:	83 ec 18             	sub    esp,0x18
 214:	c7 44 24 04 09 00 00 	mov    DWORD PTR [esp+0x4],0x9
 21b:	00 
 21c:	8b 5c 24 20          	mov    ebx,DWORD PTR [esp+0x20]
 220:	c7 04 24 70 00 00 00 	mov    DWORD PTR [esp],0x70
 227:	e8 fc ff ff ff       	call   228 <ReadRTCDate+0x18>
 22c:	c7 04 24 71 00 00 00 	mov    DWORD PTR [esp],0x71
 233:	e8 fc ff ff ff       	call   234 <ReadRTCDate+0x24>
 238:	89 c2                	mov    edx,eax
 23a:	83 e0 0f             	and    eax,0xf
 23d:	c0 ea 04             	shr    dl,0x4
 240:	0f b6 d2             	movzx  edx,dl
 243:	8d 14 92             	lea    edx,[edx+edx*4]
 246:	8d 94 50 d0 07 00 00 	lea    edx,[eax+edx*2+0x7d0]
 24d:	66 89 13             	mov    WORD PTR [ebx],dx
 250:	c7 44 24 04 08 00 00 	mov    DWORD PTR [esp+0x4],0x8
 257:	00 
 258:	c7 04 24 70 00 00 00 	mov    DWORD PTR [esp],0x70
 25f:	e8 fc ff ff ff       	call   260 <ReadRTCDate+0x50>
 264:	c7 04 24 71 00 00 00 	mov    DWORD PTR [esp],0x71
 26b:	e8 fc ff ff ff       	call   26c <ReadRTCDate+0x5c>
 270:	89 c2                	mov    edx,eax
 272:	83 e0 0f             	and    eax,0xf
 275:	c0 ea 04             	shr    dl,0x4
 278:	8d 14 92             	lea    edx,[edx+edx*4]
 27b:	8d 04 50             	lea    eax,[eax+edx*2]
 27e:	88 43 02             	mov    BYTE PTR [ebx+0x2],al
 281:	c7 44 24 04 07 00 00 	mov    DWORD PTR [esp+0x4],0x7
 288:	00 
 289:	c7 04 24 70 00 00 00 	mov    DWORD PTR [esp],0x70
 290:	e8 fc ff ff ff       	call   291 <ReadRTCDate+0x81>
 295:	c7 04 24 71 00 00 00 	mov    DWORD PTR [esp],0x71
 29c:	e8 fc ff ff ff       	call   29d <ReadRTCDate+0x8d>
 2a1:	89 c2                	mov    edx,eax
 2a3:	83 e0 0f             	and    eax,0xf
 2a6:	c0 ea 04             	shr    dl,0x4
 2a9:	8d 14 92             	lea    edx,[edx+edx*4]
 2ac:	8d 04 50             	lea    eax,[eax+edx*2]
 2af:	88 43 03             	mov    BYTE PTR [ebx+0x3],al
 2b2:	c7 44 24 04 06 00 00 	mov    DWORD PTR [esp+0x4],0x6
 2b9:	00 
 2ba:	c7 04 24 70 00 00 00 	mov    DWORD PTR [esp],0x70
 2c1:	e8 fc ff ff ff       	call   2c2 <ReadRTCDate+0xb2>
 2c6:	c7 04 24 71 00 00 00 	mov    DWORD PTR [esp],0x71
 2cd:	e8 fc ff ff ff       	call   2ce <ReadRTCDate+0xbe>
 2d2:	89 c2                	mov    edx,eax
 2d4:	83 e0 0f             	and    eax,0xf
 2d7:	c0 ea 04             	shr    dl,0x4
 2da:	8d 14 92             	lea    edx,[edx+edx*4]
 2dd:	8d 04 50             	lea    eax,[eax+edx*2]
 2e0:	88 43 04             	mov    BYTE PTR [ebx+0x4],al
 2e3:	83 c4 18             	add    esp,0x18
 2e6:	5b                   	pop    ebx
 2e7:	c3                   	ret    
 2e8:	90                   	nop
 2e9:	8d b4 26 00 00 00 00 	lea    esi,[esi+eiz*1+0x0]

000002f0 <DayOfWeekStr>:
 2f0:	0f b6 54 24 04       	movzx  edx,BYTE PTR [esp+0x4]
 2f5:	31 c0                	xor    eax,eax
 2f7:	0f b6 ca             	movzx  ecx,dl
 2fa:	80 fa 07             	cmp    dl,0x7
 2fd:	0f 46 c1             	cmovbe eax,ecx
 300:	8b 04 85 00 00 00 00 	mov    eax,DWORD PTR [eax*4+0x0]
 307:	c3                   	ret    
